target datalayout = "e-m:e-p270:32:32-p271:32:32-p272:64:64-i64:64-i128:128-f80:128-n8:16:32:64-S128"
target triple = "x86_64-pc-linux-gnu"

%struct.forward = type { %struct.slurm_node_alias_addrs_t, i16, i16, ptr, i32, i16, i16 }
%struct.slurm_node_alias_addrs_t = type { i64, ptr, ptr, i32, ptr }
%struct.sockaddr_storage = type { i16, [118 x i8], i64 }
%struct.slurm_msg = type { %struct.sockaddr_storage, ptr, i32, i32, i32, i8, i32, i8, i32, ptr, ptr, i32, ptr, ptr, i16, i8, i16, i16, %struct.forward, ptr, %struct.sockaddr_storage, ptr }
%struct.container_id_response_msg_t = type { ptr }

@.str.2 = private unnamed_addr constant [22 x i8] c"slurm_protocol_pack.c\00", align 1
@__func__._unpack_container_id_response_msg = private unnamed_addr constant [34 x i8] c"_unpack_container_id_response_msg\00", align 1

; Function Attrs: nounwind uwtable
define internal i32 @_unpack_container_id_response_msg(ptr noundef %0, ptr noundef %1) #0 {
  %3 = alloca i32, align 4
  %4 = alloca ptr, align 8
  %5 = alloca ptr, align 8
  %6 = alloca ptr, align 8
  %7 = alloca i32, align 4
  store ptr %0, ptr %4, align 8
  store ptr %1, ptr %5, align 8
  call void @llvm.lifetime.start.p0(i64 8, ptr %6) #6
  %8 = call ptr @slurm_xcalloc(i64 noundef 1, i64 noundef 8, i1 noundef zeroext true, i1 noundef zeroext false, ptr noundef @.str.2, i32 noundef 12612, ptr noundef @__func__._unpack_container_id_response_msg)
  store ptr %8, ptr %6, align 8
  %9 = load ptr, ptr %6, align 8
  %10 = load ptr, ptr %4, align 8
  %11 = getelementptr inbounds nuw %struct.slurm_msg, ptr %10, i32 0, i32 13
  store ptr %9, ptr %11, align 8
  %12 = load ptr, ptr %4, align 8
  %13 = getelementptr inbounds nuw %struct.slurm_msg, ptr %12, i32 0, i32 17
  %14 = load i16, ptr %13, align 2
  %15 = zext i16 %14 to i32
  %16 = icmp sge i32 %15, 10240
  br i1 %16, label %17, label %28

17:                                               ; preds = %2
  %18 = load ptr, ptr %6, align 8
  %19 = getelementptr inbounds nuw %struct.container_id_response_msg_t, ptr %18, i32 0, i32 0
  %20 = load ptr, ptr %5, align 8
  %21 = load ptr, ptr %4, align 8
  %22 = getelementptr inbounds nuw %struct.slurm_msg, ptr %21, i32 0, i32 17
  %23 = load i16, ptr %22, align 2
  %24 = call i32 @slurm_unpack_list(ptr noundef %19, ptr noundef @_unpack_each_container_id, ptr noundef @slurm_free_step_id, ptr noundef %20, i16 noundef zeroext %23)
  %25 = icmp ne i32 %24, 0
  br i1 %25, label %26, label %27

26:                                               ; preds = %17
  br label %29

27:                                               ; preds = %17
  br label %28

28:                                               ; preds = %27, %2
  store i32 0, ptr %3, align 4
  store i32 1, ptr %7, align 4
  br label %33

29:                                               ; preds = %26
  %30 = load ptr, ptr %6, align 8
  call void @slurm_free_container_id_response_msg(ptr noundef %30)
  %31 = load ptr, ptr %4, align 8
  %32 = getelementptr inbounds nuw %struct.slurm_msg, ptr %31, i32 0, i32 13
  store ptr null, ptr %32, align 8
  store i32 -1, ptr %3, align 4
  store i32 1, ptr %7, align 4
  br label %33

33:                                               ; preds = %29, %28
  call void @llvm.lifetime.end.p0(i64 8, ptr %6) #6
  %34 = load i32, ptr %3, align 4
  ret i32 %34
}