; Function Attrs: nounwind uwtable
define internal fastcc range(i32 -1, 1) i32 @_unpack_container_id_response_msg(ptr noundef captures(none) initializes((200, 208)) %0, ptr noundef %1) unnamed_addr #0 {
  %3 = tail call ptr @slurm_xcalloc(i64 noundef 1, i64 noundef 8, i1 noundef zeroext true, i1 noundef zeroext false, ptr noundef nonnull @.str.2, i32 noundef 12612, ptr noundef nonnull @__func__._unpack_container_id_response_msg) #7
  %4 = getelementptr inbounds nuw i8, ptr %0, i64 200
  store ptr %3, ptr %4, align 8
  %5 = getelementptr inbounds nuw i8, ptr %0, i64 214
  %6 = load i16, ptr %5, align 2
  %7 = icmp ugt i16 %6, 10239
  br i1 %7, label %8, label %11

8:                                                ; preds = %2
  %9 = tail call i32 @slurm_unpack_list(ptr noundef %3, ptr noundef nonnull @_unpack_each_container_id, ptr noundef nonnull @slurm_free_step_id, ptr noundef %1, i16 noundef zeroext %6)
  %.not = icmp eq i32 %9, 0
  br i1 %.not, label %11, label %10

10:                                               ; preds = %8
  tail call void @slurm_free_container_id_response_msg(ptr noundef %3) #7
  store ptr null, ptr %4, align 8
  br label %11

11:                                               ; preds = %2, %8, %10
  %.0 = phi i32 [ -1, %10 ], [ 0, %8 ], [ 0, %2 ]
  ret i32 %.0
}